; Function Attrs: mustprogress nofree norecurse nosync nounwind willreturn memory(argmem: read) uwtable
define noundef zeroext i1 @_ZN4base31SharedPersistentMemoryAllocator24IsSharedMemoryAcceptableERKNS_12SharedMemoryE(ptr noundef nonnull readonly align 8 captures(none) dereferenceable(40) %0) local_unnamed_addr #11 align 2 {
  %2 = getelementptr inbounds nuw i8, ptr %0, i64 16
  %3 = load ptr, ptr %2, align 8, !tbaa !72
  %.not.i = icmp eq ptr %3, null
  br i1 %.not.i, label %_ZN4base25PersistentMemoryAllocator18IsMemoryAcceptableEPKvmmb.exit, label %4

4:                                                ; preds = %1
  %5 = getelementptr inbounds nuw i8, ptr %0, i64 8
  %6 = load i64, ptr %5, align 8, !tbaa !74
  %7 = ptrtoint ptr %3 to i64
  %8 = and i64 %7, 7
  %9 = icmp eq i64 %8, 0
  %10 = add i64 %6, -56
  %11 = icmp ult i64 %10, 1073741769
  %or.cond3.i = and i1 %9, %11
  %12 = and i64 %6, 7
  %13 = icmp eq i64 %12, 0
  %or.cond = select i1 %or.cond3.i, i1 %13, i1 false
  br label %_ZN4base25PersistentMemoryAllocator18IsMemoryAcceptableEPKvmmb.exit

_ZN4base25PersistentMemoryAllocator18IsMemoryAcceptableEPKvmmb.exit: ; preds = %4, %1
  %14 = phi i1 [ false, %1 ], [ %or.cond, %4 ]
  ret i1 %14
}